; Function Attrs: mustprogress nofree norecurse nosync nounwind willreturn memory(readwrite, inaccessiblemem: none) uwtable
define hidden void @_ZN9Assembler3movE8RegisterS0_(ptr nocapture noundef nonnull readonly align 8 dereferenceable(40) %0, i32 %1, i32 %2) local_unnamed_addr #8 align 2 {
  %4 = sext i32 %1 to i64
  %5 = getelementptr inbounds %"class.Register::RegisterImpl", ptr getelementptr inbounds (i8, ptr @all_RegisterImpls, i64 1), i64 %4
  %6 = ptrtoint ptr %5 to i64
  %7 = trunc i64 %6 to i32
  %8 = sub i32 %7, ptrtoint (ptr getelementptr inbounds (i8, ptr @all_RegisterImpls, i64 1) to i32)
  %9 = sext i32 %2 to i64
  %10 = getelementptr inbounds %"class.Register::RegisterImpl", ptr getelementptr inbounds (i8, ptr @all_RegisterImpls, i64 1), i64 %9
  %11 = ptrtoint ptr %10 to i64
  %12 = trunc i64 %11 to i32
  %13 = sub i32 %12, ptrtoint (ptr getelementptr inbounds (i8, ptr @all_RegisterImpls, i64 1) to i32)
  %14 = icmp sgt i32 %8, 15
  %15 = icmp sgt i32 %13, 15
  %or.cond.i.i = or i1 %14, %15
  br i1 %or.cond.i.i, label %16, label %38

16:                                               ; preds = %3
  %17 = shl i32 %8, 2
  %spec.select.i.i.i.i.i = and i32 %17, 64
  %18 = lshr i32 %8, 1
  %19 = and i32 %18, 4
  %20 = and i32 %13, 16
  %21 = lshr i32 %13, 3
  %22 = and i32 %21, 1
  %.1.i10.i.i.i.i = or disjoint i32 %spec.select.i.i.i.i.i, %19
  %.1.i.i.i.i.i = or disjoint i32 %.1.i10.i.i.i.i, %20
  %23 = or disjoint i32 %.1.i.i.i.i.i, %22
  %24 = and i32 %13, 7
  %25 = getelementptr inbounds i8, ptr %0, i64 8
  %26 = load ptr, ptr %25, align 8
  %27 = getelementptr inbounds i8, ptr %26, i64 16
  %28 = load ptr, ptr %27, align 8
  %29 = getelementptr inbounds i8, ptr %28, i64 1
  store i8 -43, ptr %28, align 1
  store ptr %29, ptr %27, align 8
  %30 = load ptr, ptr %25, align 8
  %31 = trunc nuw nsw i32 %23 to i8
  %.0.i.i2.i.i.i.i.i = or disjoint i8 %31, 8
  %32 = getelementptr inbounds i8, ptr %30, i64 16
  %33 = load ptr, ptr %32, align 8
  %34 = getelementptr inbounds i8, ptr %33, i64 1
  store i8 %.0.i.i2.i.i.i.i.i, ptr %33, align 1
  store ptr %34, ptr %32, align 8
  %35 = shl i32 %8, 3
  %36 = and i32 %35, 56
  %37 = or disjoint i32 %36, %24
  br label %_ZN9Assembler4movqE8RegisterS0_.exit

38:                                               ; preds = %3
  %39 = icmp slt i32 %8, 8
  %40 = icmp slt i32 %13, 8
  %41 = getelementptr inbounds i8, ptr %0, i64 8
  %42 = load ptr, ptr %41, align 8
  %43 = getelementptr inbounds i8, ptr %42, i64 16
  %44 = load ptr, ptr %43, align 8
  %45 = getelementptr inbounds i8, ptr %44, i64 1
  br i1 %39, label %46, label %50

46:                                               ; preds = %38
  br i1 %40, label %47, label %48

47:                                               ; preds = %46
  store i8 72, ptr %44, align 1
  store ptr %45, ptr %43, align 8
  br label %53

48:                                               ; preds = %46
  store i8 73, ptr %44, align 1
  store ptr %45, ptr %43, align 8
  %49 = add nsw i32 %13, -8
  br label %53

50:                                               ; preds = %38
  %51 = add nsw i32 %13, -8
  %spec.select.i = select i1 %40, i8 76, i8 77
  %spec.select2.i = select i1 %40, i32 %13, i32 %51
  store i8 %spec.select.i, ptr %44, align 1
  store ptr %45, ptr %43, align 8
  %52 = add nsw i32 %8, -8
  br label %53

53:                                               ; preds = %50, %48, %47
  %.1.i.i = phi i32 [ %13, %47 ], [ %49, %48 ], [ %spec.select2.i, %50 ]
  %.017.i.i = phi i32 [ %8, %47 ], [ %8, %48 ], [ %52, %50 ]
  %54 = shl i32 %.017.i.i, 3
  %55 = or i32 %54, %.1.i.i
  br label %_ZN9Assembler4movqE8RegisterS0_.exit

_ZN9Assembler4movqE8RegisterS0_.exit:             ; preds = %16, %53
  %.0.i.i = phi i32 [ %37, %16 ], [ %55, %53 ]
  %56 = getelementptr inbounds i8, ptr %0, i64 8
  %57 = load ptr, ptr %56, align 8
  %58 = trunc i32 %.0.i.i to i8
  %.0.i2.i.i = or i8 %58, -64
  %59 = getelementptr inbounds i8, ptr %57, i64 16
  %60 = load ptr, ptr %59, align 8
  %61 = getelementptr inbounds i8, ptr %60, i64 1
  store i8 -117, ptr %60, align 1
  %62 = getelementptr inbounds i8, ptr %60, i64 2
  store i8 %.0.i2.i.i, ptr %61, align 1
  store ptr %62, ptr %59, align 8
  ret void
}